target datalayout = "e-m:e-p270:32:32-p271:32:32-p272:64:64-i64:64-i128:128-f80:128-n8:16:32:64-S128"
target triple = "x86_64-pc-linux-gnu"

%class.LIR_Opr = type { i64 }
%class.Instruction = type { ptr, i32, i32, i32, ptr, ptr, ptr, %class.LIR_Opr, i32, ptr, ptr, ptr, ptr }
%class.AccessArray = type { %class.Instruction, ptr }
%class.AccessIndexed = type <{ %class.AccessArray, ptr, ptr, i8, i8, [6 x i8] }>

; Function Attrs: mustprogress nounwind uwtable
define linkonce_odr hidden void @_ZN13AccessIndexed12clear_lengthEv(ptr noundef nonnull align 8 dereferenceable(122) %0) #1 comdat align 2 {
  %2 = alloca ptr, align 8
  store ptr %0, ptr %2, align 8
  %3 = load ptr, ptr %2, align 8
  %4 = getelementptr inbounds %class.AccessIndexed, ptr %3, i32 0, i32 2
  store ptr null, ptr %4, align 8
  ret void
}

; Function Attrs: mustprogress nounwind uwtable
define linkonce_odr hidden void @_ZN11Instruction8set_flagENS_15InstructionFlagEb(ptr noundef nonnull align 8 dereferenceable(96) %0, i32 noundef %1, i1 noundef zeroext %2) #1 comdat align 2 {
  %4 = alloca ptr, align 8
  %5 = alloca i32, align 4
  %6 = alloca i8, align 1
  store ptr %0, ptr %4, align 8
  store i32 %1, ptr %5, align 4
  %7 = zext i1 %2 to i8
  store i8 %7, ptr %6, align 1
  %8 = load ptr, ptr %4, align 8
  %9 = load i8, ptr %6, align 1
  %10 = trunc i8 %9 to i1
  br i1 %10, label %11, label %17

11:                                               ; preds = %3
  %12 = getelementptr inbounds %class.Instruction, ptr %8, i32 0, i32 8
  %13 = load i32, ptr %12, align 8
  %14 = load i32, ptr %5, align 4
  %15 = shl i32 1, %14
  %16 = or i32 %13, %15
  br label %24

17:                                               ; preds = %3
  %18 = getelementptr inbounds %class.Instruction, ptr %8, i32 0, i32 8
  %19 = load i32, ptr %18, align 8
  %20 = load i32, ptr %5, align 4
  %21 = shl i32 1, %20
  %22 = xor i32 %21, -1
  %23 = and i32 %19, %22
  br label %24

24:                                               ; preds = %17, %11
  %25 = phi i32 [ %16, %11 ], [ %23, %17 ]
  %26 = getelementptr inbounds %class.Instruction, ptr %8, i32 0, i32 8
  store i32 %25, ptr %26, align 8
  ret void
}

; Function Attrs: mustprogress nounwind uwtable
define hidden void @_ZN20RangeCheckEliminator18remove_range_checkEP13AccessIndexed(ptr noundef nonnull align 8 dereferenceable(88) %0, ptr noundef %1) #1 align 2 {
  %3 = alloca ptr, align 8
  %4 = alloca ptr, align 8
  store ptr %0, ptr %3, align 8
  store ptr %1, ptr %4, align 8
  %5 = load ptr, ptr %4, align 8
  call void @_ZN11Instruction8set_flagENS_15InstructionFlagEb(ptr noundef nonnull align 8 dereferenceable(96) %5, i32 noundef 17, i1 noundef zeroext false)
  %6 = load ptr, ptr %4, align 8
  call void @_ZN13AccessIndexed12clear_lengthEv(ptr noundef nonnull align 8 dereferenceable(122) %6)
  ret void
}