; Function Attrs: mustprogress nofree norecurse nosync nounwind willreturn memory(argmem: readwrite) uwtable
define hidden void @_ZN20RangeCheckEliminator18remove_range_checkEP13AccessIndexed(ptr nocapture noundef nonnull readnone align 8 dereferenceable(88) %0, ptr nocapture noundef %1) local_unnamed_addr #3 align 2 {
  %3 = getelementptr inbounds i8, ptr %1, i64 56
  %4 = load i32, ptr %3, align 8
  %5 = and i32 %4, -131073
  store i32 %5, ptr %3, align 8
  %6 = getelementptr inbounds i8, ptr %1, i64 112
  store ptr null, ptr %6, align 8
  ret void
}